target datalayout = "e-m:e-p270:32:32-p271:32:32-p272:64:64-i64:64-i128:128-f80:128-n8:16:32:64-S128"
target triple = "x86_64-pc-linux-gnu"

%struct.FunctionCallInfoBaseData = type { ptr, ptr, ptr, i32, i8, i16, [0 x %struct.NullableDatum] }
%struct.NullableDatum = type { i64, i8 }
%struct.ScanKeyData = type { i32, i16, i16, i32, i32, %struct.FmgrInfo, i64 }
%struct.FmgrInfo = type { ptr, i32, i16, i8, i8, i8, ptr, ptr, ptr }
%struct.spgLeafConsistentIn = type { ptr, ptr, i32, i32, i64, ptr, i32, i8, i64 }
%struct.spgLeafConsistentOut = type { i64, i8, i8, ptr }

@.str = private unnamed_addr constant [33 x i8] c"unrecognized strategy number: %d\00", align 1
@.str.1 = private unnamed_addr constant [18 x i8] c"spgquadtreeproc.c\00", align 1
@__func__.spg_quad_leaf_consistent = private unnamed_addr constant [25 x i8] c"spg_quad_leaf_consistent\00", align 1

; Function Attrs: inlinehint nounwind uwtable
define internal i64 @PointerGetDatum(ptr noundef %0) #2 {
  %2 = alloca ptr, align 8
  store ptr %0, ptr %2, align 8
  %3 = load ptr, ptr %2, align 8
  %4 = ptrtoint ptr %3 to i64
  ret i64 %4
}

; Function Attrs: inlinehint nounwind uwtable
define internal i64 @BoolGetDatum(i1 noundef zeroext %0) #2 {
  %2 = alloca i8, align 1
  %3 = zext i1 %0 to i8
  store i8 %3, ptr %2, align 1
  %4 = load i8, ptr %2, align 1, !range !4, !noundef !5
  %5 = trunc i8 %4 to i1
  %6 = select i1 %5, i32 1, i32 0
  %7 = sext i32 %6 to i64
  ret i64 %7
}

; Function Attrs: inlinehint nounwind uwtable
define internal zeroext i1 @DatumGetBool(i64 noundef %0) #2 {
  %2 = alloca i64, align 8
  store i64 %0, ptr %2, align 8
  %3 = load i64, ptr %2, align 8
  %4 = icmp ne i64 %3, 0
  ret i1 %4
}

; Function Attrs: inlinehint nounwind uwtable
define internal i64 @PointPGetDatum(ptr noundef %0) #2 {
  %2 = alloca ptr, align 8
  store ptr %0, ptr %2, align 8
  %3 = load ptr, ptr %2, align 8
  %4 = call i64 @PointerGetDatum(ptr noundef %3)
  ret i64 %4
}

; Function Attrs: inlinehint nounwind uwtable
define internal ptr @DatumGetPointP(i64 noundef %0) #2 {
  %2 = alloca i64, align 8
  store i64 %0, ptr %2, align 8
  %3 = load i64, ptr %2, align 8
  %4 = call ptr @DatumGetPointer(i64 noundef %3)
  ret ptr %4
}

; Function Attrs: inlinehint nounwind uwtable
define internal ptr @DatumGetPointer(i64 noundef %0) #2 {
  %2 = alloca i64, align 8
  store i64 %0, ptr %2, align 8
  %3 = load i64, ptr %2, align 8
  %4 = inttoptr i64 %3 to ptr
  ret ptr %4
}

; Function Attrs: nounwind uwtable
define dso_local i64 @spg_quad_leaf_consistent(ptr noundef %0) #0 {
  %2 = alloca ptr, align 8
  %3 = alloca ptr, align 8
  %4 = alloca ptr, align 8
  %5 = alloca ptr, align 8
  %6 = alloca i8, align 1
  %7 = alloca i32, align 4
  %8 = alloca ptr, align 8
  %9 = alloca i32, align 4
  store ptr %0, ptr %2, align 8
  call void @llvm.lifetime.start.p0(i64 8, ptr %3) #6
  %10 = load ptr, ptr %2, align 8
  %11 = getelementptr inbounds nuw %struct.FunctionCallInfoBaseData, ptr %10, i32 0, i32 6
  %12 = getelementptr inbounds [0 x %struct.NullableDatum], ptr %11, i64 0, i64 0
  %13 = getelementptr inbounds nuw %struct.NullableDatum, ptr %12, i32 0, i32 0
  %14 = load i64, ptr %13, align 8
  %15 = call ptr @DatumGetPointer(i64 noundef %14)
  store ptr %15, ptr %3, align 8
  call void @llvm.lifetime.start.p0(i64 8, ptr %4) #6
  %16 = load ptr, ptr %2, align 8
  %17 = getelementptr inbounds nuw %struct.FunctionCallInfoBaseData, ptr %16, i32 0, i32 6
  %18 = getelementptr inbounds [0 x %struct.NullableDatum], ptr %17, i64 0, i64 1
  %19 = getelementptr inbounds nuw %struct.NullableDatum, ptr %18, i32 0, i32 0
  %20 = load i64, ptr %19, align 8
  %21 = call ptr @DatumGetPointer(i64 noundef %20)
  store ptr %21, ptr %4, align 8
  call void @llvm.lifetime.start.p0(i64 8, ptr %5) #6
  %22 = load ptr, ptr %3, align 8
  %23 = getelementptr inbounds nuw %struct.spgLeafConsistentIn, ptr %22, i32 0, i32 8
  %24 = load i64, ptr %23, align 8
  %25 = call ptr @DatumGetPointP(i64 noundef %24)
  store ptr %25, ptr %5, align 8
  call void @llvm.lifetime.start.p0(i64 1, ptr %6) #6
  call void @llvm.lifetime.start.p0(i64 4, ptr %7) #6
  %26 = load ptr, ptr %4, align 8
  %27 = getelementptr inbounds nuw %struct.spgLeafConsistentOut, ptr %26, i32 0, i32 1
  store i8 0, ptr %27, align 8
  %28 = load ptr, ptr %3, align 8
  %29 = getelementptr inbounds nuw %struct.spgLeafConsistentIn, ptr %28, i32 0, i32 8
  %30 = load i64, ptr %29, align 8
  %31 = load ptr, ptr %4, align 8
  %32 = getelementptr inbounds nuw %struct.spgLeafConsistentOut, ptr %31, i32 0, i32 0
  store i64 %30, ptr %32, align 8
  store i8 1, ptr %6, align 1
  store i32 0, ptr %7, align 4
  br label %33

33:                                               ; preds = %134, %1
  %34 = load i32, ptr %7, align 4
  %35 = load ptr, ptr %3, align 8
  %36 = getelementptr inbounds nuw %struct.spgLeafConsistentIn, ptr %35, i32 0, i32 2
  %37 = load i32, ptr %36, align 8
  %38 = icmp slt i32 %34, %37
  br i1 %38, label %39, label %137

39:                                               ; preds = %33
  call void @llvm.lifetime.start.p0(i64 8, ptr %8) #6
  %40 = load ptr, ptr %3, align 8
  %41 = getelementptr inbounds nuw %struct.spgLeafConsistentIn, ptr %40, i32 0, i32 0
  %42 = load ptr, ptr %41, align 8
  %43 = load i32, ptr %7, align 4
  %44 = sext i32 %43 to i64
  %45 = getelementptr inbounds %struct.ScanKeyData, ptr %42, i64 %44
  %46 = getelementptr inbounds nuw %struct.ScanKeyData, ptr %45, i32 0, i32 6
  %47 = load i64, ptr %46, align 8
  %48 = call ptr @DatumGetPointP(i64 noundef %47)
  store ptr %48, ptr %8, align 8
  %49 = load ptr, ptr %3, align 8
  %50 = getelementptr inbounds nuw %struct.spgLeafConsistentIn, ptr %49, i32 0, i32 0
  %51 = load ptr, ptr %50, align 8
  %52 = load i32, ptr %7, align 4
  %53 = sext i32 %52 to i64
  %54 = getelementptr inbounds %struct.ScanKeyData, ptr %51, i64 %53
  %55 = getelementptr inbounds nuw %struct.ScanKeyData, ptr %54, i32 0, i32 2
  %56 = load i16, ptr %55, align 2
  %57 = zext i16 %56 to i32
  switch i32 %57, label %106 [
    i32 1, label %58
    i32 5, label %66
    i32 6, label %74
    i32 10, label %82
    i32 29, label %82
    i32 11, label %90
    i32 30, label %90
    i32 8, label %98
  ]

58:                                               ; preds = %39
  %59 = load ptr, ptr %5, align 8
  %60 = call i64 @PointPGetDatum(ptr noundef %59)
  %61 = load ptr, ptr %8, align 8
  %62 = call i64 @PointPGetDatum(ptr noundef %61)
  %63 = call i64 @DirectFunctionCall2Coll(ptr noundef @point_left, i32 noundef 0, i64 noundef %60, i64 noundef %62)
  %64 = call zeroext i1 @DatumGetBool(i64 noundef %63)
  %65 = zext i1 %64 to i8
  store i8 %65, ptr %6, align 1
  br label %126

66:                                               ; preds = %39
  %67 = load ptr, ptr %5, align 8
  %68 = call i64 @PointPGetDatum(ptr noundef %67)
  %69 = load ptr, ptr %8, align 8
  %70 = call i64 @PointPGetDatum(ptr noundef %69)
  %71 = call i64 @DirectFunctionCall2Coll(ptr noundef @point_right, i32 noundef 0, i64 noundef %68, i64 noundef %70)
  %72 = call zeroext i1 @DatumGetBool(i64 noundef %71)
  %73 = zext i1 %72 to i8
  store i8 %73, ptr %6, align 1
  br label %126

74:                                               ; preds = %39
  %75 = load ptr, ptr %5, align 8
  %76 = call i64 @PointPGetDatum(ptr noundef %75)
  %77 = load ptr, ptr %8, align 8
  %78 = call i64 @PointPGetDatum(ptr noundef %77)
  %79 = call i64 @DirectFunctionCall2Coll(ptr noundef @point_eq, i32 noundef 0, i64 noundef %76, i64 noundef %78)
  %80 = call zeroext i1 @DatumGetBool(i64 noundef %79)
  %81 = zext i1 %80 to i8
  store i8 %81, ptr %6, align 1
  br label %126

82:                                               ; preds = %39, %39
  %83 = load ptr, ptr %5, align 8
  %84 = call i64 @PointPGetDatum(ptr noundef %83)
  %85 = load ptr, ptr %8, align 8
  %86 = call i64 @PointPGetDatum(ptr noundef %85)
  %87 = call i64 @DirectFunctionCall2Coll(ptr noundef @point_below, i32 noundef 0, i64 noundef %84, i64 noundef %86)
  %88 = call zeroext i1 @DatumGetBool(i64 noundef %87)
  %89 = zext i1 %88 to i8
  store i8 %89, ptr %6, align 1
  br label %126

90:                                               ; preds = %39, %39
  %91 = load ptr, ptr %5, align 8
  %92 = call i64 @PointPGetDatum(ptr noundef %91)
  %93 = load ptr, ptr %8, align 8
  %94 = call i64 @PointPGetDatum(ptr noundef %93)
  %95 = call i64 @DirectFunctionCall2Coll(ptr noundef @point_above, i32 noundef 0, i64 noundef %92, i64 noundef %94)
  %96 = call zeroext i1 @DatumGetBool(i64 noundef %95)
  %97 = zext i1 %96 to i8
  store i8 %97, ptr %6, align 1
  br label %126

98:                                               ; preds = %39
  %99 = load ptr, ptr %8, align 8
  %100 = call i64 @PointPGetDatum(ptr noundef %99)
  %101 = load ptr, ptr %5, align 8
  %102 = call i64 @PointPGetDatum(ptr noundef %101)
  %103 = call i64 @DirectFunctionCall2Coll(ptr noundef @box_contain_pt, i32 noundef 0, i64 noundef %100, i64 noundef %102)
  %104 = call zeroext i1 @DatumGetBool(i64 noundef %103)
  %105 = zext i1 %104 to i8
  store i8 %105, ptr %6, align 1
  br label %126

106:                                              ; preds = %39
  br label %107

107:                                              ; preds = %106
  br i1 true, label %108, label %110

108:                                              ; preds = %107
  %109 = call zeroext i1 @errstart_cold(i32 noundef 21, ptr noundef null) #7
  br i1 %109, label %112, label %123

110:                                              ; preds = %107
  %111 = call zeroext i1 @errstart(i32 noundef 21, ptr noundef null)
  br i1 %111, label %112, label %123

112:                                              ; preds = %110, %108
  %113 = load ptr, ptr %3, align 8
  %114 = getelementptr inbounds nuw %struct.spgLeafConsistentIn, ptr %113, i32 0, i32 0
  %115 = load ptr, ptr %114, align 8
  %116 = load i32, ptr %7, align 4
  %117 = sext i32 %116 to i64
  %118 = getelementptr inbounds %struct.ScanKeyData, ptr %115, i64 %117
  %119 = getelementptr inbounds nuw %struct.ScanKeyData, ptr %118, i32 0, i32 2
  %120 = load i16, ptr %119, align 2
  %121 = zext i16 %120 to i32
  %122 = call i32 (ptr, ...) @errmsg_internal(ptr noundef @.str, i32 noundef %121)
  call void @errfinish(ptr noundef @.str.1, i32 noundef 457, ptr noundef @__func__.spg_quad_leaf_consistent)
  br label %123

123:                                              ; preds = %112, %110, %108
  unreachable

124:                                              ; No predecessors!
  br label %125

125:                                              ; preds = %124
  br label %126

126:                                              ; preds = %125, %98, %90, %82, %74, %66, %58
  %127 = load i8, ptr %6, align 1, !range !4, !noundef !5
  %128 = trunc i8 %127 to i1
  br i1 %128, label %130, label %129

129:                                              ; preds = %126
  store i32 2, ptr %9, align 4
  br label %131

130:                                              ; preds = %126
  store i32 0, ptr %9, align 4
  br label %131

131:                                              ; preds = %130, %129
  call void @llvm.lifetime.end.p0(i64 8, ptr %8) #6
  %132 = load i32, ptr %9, align 4
  switch i32 %132, label %162 [
    i32 0, label %133
    i32 2, label %137
  ]

133:                                              ; preds = %131
  br label %134

134:                                              ; preds = %133
  %135 = load i32, ptr %7, align 4
  %136 = add i32 %135, 1
  store i32 %136, ptr %7, align 4
  br label %33, !llvm.loop !13

137:                                              ; preds = %131, %33
  %138 = load i8, ptr %6, align 1, !range !4, !noundef !5
  %139 = trunc i8 %138 to i1
  br i1 %139, label %140, label %158

140:                                              ; preds = %137
  %141 = load ptr, ptr %3, align 8
  %142 = getelementptr inbounds nuw %struct.spgLeafConsistentIn, ptr %141, i32 0, i32 3
  %143 = load i32, ptr %142, align 4
  %144 = icmp sgt i32 %143, 0
  br i1 %144, label %145, label %158

145:                                              ; preds = %140
  %146 = load ptr, ptr %3, align 8
  %147 = getelementptr inbounds nuw %struct.spgLeafConsistentIn, ptr %146, i32 0, i32 8
  %148 = load i64, ptr %147, align 8
  %149 = load ptr, ptr %3, align 8
  %150 = getelementptr inbounds nuw %struct.spgLeafConsistentIn, ptr %149, i32 0, i32 1
  %151 = load ptr, ptr %150, align 8
  %152 = load ptr, ptr %3, align 8
  %153 = getelementptr inbounds nuw %struct.spgLeafConsistentIn, ptr %152, i32 0, i32 3
  %154 = load i32, ptr %153, align 4
  %155 = call ptr @spg_key_orderbys_distances(i64 noundef %148, i1 noundef zeroext true, ptr noundef %151, i32 noundef %154)
  %156 = load ptr, ptr %4, align 8
  %157 = getelementptr inbounds nuw %struct.spgLeafConsistentOut, ptr %156, i32 0, i32 3
  store ptr %155, ptr %157, align 8
  br label %158

158:                                              ; preds = %145, %140, %137
  %159 = load i8, ptr %6, align 1, !range !4, !noundef !5
  %160 = trunc i8 %159 to i1
  %161 = call i64 @BoolGetDatum(i1 noundef zeroext %160)
  store i32 1, ptr %9, align 4
  call void @llvm.lifetime.end.p0(i64 4, ptr %7) #6
  call void @llvm.lifetime.end.p0(i64 1, ptr %6) #6
  call void @llvm.lifetime.end.p0(i64 8, ptr %5) #6
  call void @llvm.lifetime.end.p0(i64 8, ptr %4) #6
  call void @llvm.lifetime.end.p0(i64 8, ptr %3) #6
  ret i64 %161

162:                                              ; preds = %131
  unreachable
}