; Function Attrs: nounwind uwtable
define dso_local range(i64 0, 2) i64 @spg_quad_leaf_consistent(ptr noundef readonly captures(none) %0) local_unnamed_addr #2 {
  %2 = getelementptr inbounds nuw i8, ptr %0, i64 32
  %3 = load i64, ptr %2, align 8
  %4 = inttoptr i64 %3 to ptr
  %5 = getelementptr inbounds nuw i8, ptr %0, i64 48
  %6 = load i64, ptr %5, align 8
  %7 = inttoptr i64 %6 to ptr
  %8 = getelementptr inbounds nuw i8, ptr %4, i64 48
  %9 = load i64, ptr %8, align 8
  %10 = getelementptr inbounds nuw i8, ptr %7, i64 8
  store i8 0, ptr %10, align 8
  %11 = load i64, ptr %8, align 8
  store i64 %11, ptr %7, align 8
  %12 = getelementptr inbounds nuw i8, ptr %4, i64 16
  %13 = load i32, ptr %12, align 8
  %14 = icmp slt i32 %13, 1
  br i1 %14, label %._crit_edge, label %.lr.ph

.lr.ph:                                           ; preds = %1, %39
  %indvars.iv = phi i64 [ %indvars.iv.next, %39 ], [ 0, %1 ]
  %15 = load ptr, ptr %4, align 8
  %16 = getelementptr inbounds nuw %struct.ScanKeyData, ptr %15, i64 %indvars.iv, i32 6
  %17 = load i64, ptr %16, align 8
  %18 = getelementptr inbounds nuw %struct.ScanKeyData, ptr %15, i64 %indvars.iv, i32 2
  %19 = load i16, ptr %18, align 2
  switch i16 %19, label %30 [
    i16 1, label %37
    i16 5, label %20
    i16 6, label %22
    i16 10, label %24
    i16 29, label %24
    i16 11, label %26
    i16 30, label %26
    i16 8, label %28
  ]

20:                                               ; preds = %.lr.ph
  %21 = tail call i64 @DirectFunctionCall2Coll(ptr noundef nonnull @point_right, i32 noundef 0, i64 noundef %9, i64 noundef %17) #7
  %.not44 = icmp eq i64 %21, 0
  br i1 %.not44, label %.thread, label %39

22:                                               ; preds = %.lr.ph
  %23 = tail call i64 @DirectFunctionCall2Coll(ptr noundef nonnull @point_eq, i32 noundef 0, i64 noundef %9, i64 noundef %17) #7
  %.not43 = icmp eq i64 %23, 0
  br i1 %.not43, label %.thread, label %39

24:                                               ; preds = %.lr.ph, %.lr.ph
  %25 = tail call i64 @DirectFunctionCall2Coll(ptr noundef nonnull @point_below, i32 noundef 0, i64 noundef %9, i64 noundef %17) #7
  %.not42 = icmp eq i64 %25, 0
  br i1 %.not42, label %.thread, label %39

26:                                               ; preds = %.lr.ph, %.lr.ph
  %27 = tail call i64 @DirectFunctionCall2Coll(ptr noundef nonnull @point_above, i32 noundef 0, i64 noundef %9, i64 noundef %17) #7
  %.not41 = icmp eq i64 %27, 0
  br i1 %.not41, label %.thread, label %39

28:                                               ; preds = %.lr.ph
  %29 = tail call i64 @DirectFunctionCall2Coll(ptr noundef nonnull @box_contain_pt, i32 noundef 0, i64 noundef %17, i64 noundef %9) #7
  %.not = icmp eq i64 %29, 0
  br i1 %.not, label %.thread, label %39

30:                                               ; preds = %.lr.ph
  %31 = tail call zeroext i1 @errstart_cold(i32 noundef 21, ptr noundef null) #8
  tail call void @llvm.assume(i1 %31)
  %32 = load ptr, ptr %4, align 8
  %33 = getelementptr inbounds nuw %struct.ScanKeyData, ptr %32, i64 %indvars.iv, i32 2
  %34 = load i16, ptr %33, align 2
  %35 = zext i16 %34 to i32
  %36 = tail call i32 (ptr, ...) @errmsg_internal(ptr noundef nonnull @.str, i32 noundef %35) #7
  tail call void @errfinish(ptr noundef nonnull @.str.1, i32 noundef 457, ptr noundef nonnull @__func__.spg_quad_leaf_consistent) #7
  unreachable

37:                                               ; preds = %.lr.ph
  %38 = tail call i64 @DirectFunctionCall2Coll(ptr noundef nonnull @point_left, i32 noundef 0, i64 noundef %9, i64 noundef %17) #7
  %.not45 = icmp eq i64 %38, 0
  br i1 %.not45, label %.thread, label %39

39:                                               ; preds = %20, %22, %24, %26, %28, %37
  %indvars.iv.next = add nuw nsw i64 %indvars.iv, 1
  %40 = load i32, ptr %12, align 8
  %41 = sext i32 %40 to i64
  %.not51 = icmp slt i64 %indvars.iv.next, %41
  br i1 %.not51, label %.lr.ph, label %._crit_edge, !llvm.loop !13

._crit_edge:                                      ; preds = %39, %1
  %42 = getelementptr inbounds nuw i8, ptr %4, i64 20
  %43 = load i32, ptr %42, align 4
  %44 = icmp sgt i32 %43, 0
  br i1 %44, label %45, label %.thread

45:                                               ; preds = %._crit_edge
  %46 = load i64, ptr %8, align 8
  %47 = getelementptr inbounds nuw i8, ptr %4, i64 8
  %48 = load ptr, ptr %47, align 8
  %49 = tail call ptr @spg_key_orderbys_distances(i64 noundef %46, i1 noundef zeroext true, ptr noundef %48, i32 noundef %43) #7
  %50 = getelementptr inbounds nuw i8, ptr %7, i64 16
  store ptr %49, ptr %50, align 8
  br label %.thread

.thread:                                          ; preds = %20, %22, %24, %26, %28, %37, %45, %._crit_edge
  %51 = phi i64 [ 1, %45 ], [ 1, %._crit_edge ], [ 0, %37 ], [ 0, %28 ], [ 0, %26 ], [ 0, %24 ], [ 0, %22 ], [ 0, %20 ]
  ret i64 %51
}